target datalayout = "e-m:e-p270:32:32-p271:32:32-p272:64:64-i64:64-i128:128-f80:128-n8:16:32:64-S128"
target triple = "x86_64-pc-linux-gnu"

%struct.Ssw_Sat_t_ = type { ptr, i32, ptr, i32, ptr, ptr, ptr, i32 }
%struct.Aig_Obj_t_ = type { %union.anon, ptr, ptr, i64, i32, i32, %union.anon.0 }
%union.anon = type { ptr }
%union.anon.0 = type { ptr }
%struct.Vec_Int_t_ = type { i32, i32, ptr }

; Function Attrs: nounwind uwtable
define internal void @Vec_IntGrow(ptr noundef %0, i32 noundef %1) #0 {
  %3 = alloca ptr, align 8
  %4 = alloca i32, align 4
  store ptr %0, ptr %3, align 8
  store i32 %1, ptr %4, align 4
  %5 = load ptr, ptr %3, align 8
  %6 = getelementptr inbounds %struct.Vec_Int_t_, ptr %5, i32 0, i32 0
  %7 = load i32, ptr %6, align 8
  %8 = load i32, ptr %4, align 4
  %9 = icmp sge i32 %7, %8
  br i1 %9, label %10, label %11

10:                                               ; preds = %2
  br label %36

11:                                               ; preds = %2
  %12 = load ptr, ptr %3, align 8
  %13 = getelementptr inbounds %struct.Vec_Int_t_, ptr %12, i32 0, i32 2
  %14 = load ptr, ptr %13, align 8
  %15 = icmp ne ptr %14, null
  br i1 %15, label %16, label %24

16:                                               ; preds = %11
  %17 = load ptr, ptr %3, align 8
  %18 = getelementptr inbounds %struct.Vec_Int_t_, ptr %17, i32 0, i32 2
  %19 = load ptr, ptr %18, align 8
  %20 = load i32, ptr %4, align 4
  %21 = sext i32 %20 to i64
  %22 = mul i64 4, %21
  %23 = call ptr @realloc(ptr noundef %19, i64 noundef %22) #11
  br label %29

24:                                               ; preds = %11
  %25 = load i32, ptr %4, align 4
  %26 = sext i32 %25 to i64
  %27 = mul i64 4, %26
  %28 = call noalias ptr @malloc(i64 noundef %27) #10
  br label %29

29:                                               ; preds = %24, %16
  %30 = phi ptr [ %23, %16 ], [ %28, %24 ]
  %31 = load ptr, ptr %3, align 8
  %32 = getelementptr inbounds %struct.Vec_Int_t_, ptr %31, i32 0, i32 2
  store ptr %30, ptr %32, align 8
  %33 = load i32, ptr %4, align 4
  %34 = load ptr, ptr %3, align 8
  %35 = getelementptr inbounds %struct.Vec_Int_t_, ptr %34, i32 0, i32 0
  store i32 %33, ptr %35, align 8
  br label %36

36:                                               ; preds = %29, %10
  ret void
}

; Function Attrs: nounwind uwtable
define internal i32 @Vec_IntEntry(ptr noundef %0, i32 noundef %1) #0 {
  %3 = alloca ptr, align 8
  %4 = alloca i32, align 4
  store ptr %0, ptr %3, align 8
  store i32 %1, ptr %4, align 4
  %5 = load ptr, ptr %3, align 8
  %6 = getelementptr inbounds %struct.Vec_Int_t_, ptr %5, i32 0, i32 2
  %7 = load ptr, ptr %6, align 8
  %8 = load i32, ptr %4, align 4
  %9 = sext i32 %8 to i64
  %10 = getelementptr inbounds i32, ptr %7, i64 %9
  %11 = load i32, ptr %10, align 4
  ret i32 %11
}

; Function Attrs: nounwind uwtable
define internal void @Vec_IntFillExtra(ptr noundef %0, i32 noundef %1, i32 noundef %2) #0 {
  %4 = alloca ptr, align 8
  %5 = alloca i32, align 4
  %6 = alloca i32, align 4
  %7 = alloca i32, align 4
  store ptr %0, ptr %4, align 8
  store i32 %1, ptr %5, align 4
  store i32 %2, ptr %6, align 4
  %8 = load i32, ptr %5, align 4
  %9 = load ptr, ptr %4, align 8
  %10 = getelementptr inbounds %struct.Vec_Int_t_, ptr %9, i32 0, i32 1
  %11 = load i32, ptr %10, align 4
  %12 = icmp sle i32 %8, %11
  br i1 %12, label %13, label %14

13:                                               ; preds = %3
  br label %60

14:                                               ; preds = %3
  %15 = load i32, ptr %5, align 4
  %16 = load ptr, ptr %4, align 8
  %17 = getelementptr inbounds %struct.Vec_Int_t_, ptr %16, i32 0, i32 0
  %18 = load i32, ptr %17, align 8
  %19 = mul nsw i32 2, %18
  %20 = icmp sgt i32 %15, %19
  br i1 %20, label %21, label %24

21:                                               ; preds = %14
  %22 = load ptr, ptr %4, align 8
  %23 = load i32, ptr %5, align 4
  call void @Vec_IntGrow(ptr noundef %22, i32 noundef %23)
  br label %37

24:                                               ; preds = %14
  %25 = load i32, ptr %5, align 4
  %26 = load ptr, ptr %4, align 8
  %27 = getelementptr inbounds %struct.Vec_Int_t_, ptr %26, i32 0, i32 0
  %28 = load i32, ptr %27, align 8
  %29 = icmp sgt i32 %25, %28
  br i1 %29, label %30, label %36

30:                                               ; preds = %24
  %31 = load ptr, ptr %4, align 8
  %32 = load ptr, ptr %4, align 8
  %33 = getelementptr inbounds %struct.Vec_Int_t_, ptr %32, i32 0, i32 0
  %34 = load i32, ptr %33, align 8
  %35 = mul nsw i32 2, %34
  call void @Vec_IntGrow(ptr noundef %31, i32 noundef %35)
  br label %36

36:                                               ; preds = %30, %24
  br label %37

37:                                               ; preds = %36, %21
  %38 = load ptr, ptr %4, align 8
  %39 = getelementptr inbounds %struct.Vec_Int_t_, ptr %38, i32 0, i32 1
  %40 = load i32, ptr %39, align 4
  store i32 %40, ptr %7, align 4
  br label %41

41:                                               ; preds = %53, %37
  %42 = load i32, ptr %7, align 4
  %43 = load i32, ptr %5, align 4
  %44 = icmp slt i32 %42, %43
  br i1 %44, label %45, label %56

45:                                               ; preds = %41
  %46 = load i32, ptr %6, align 4
  %47 = load ptr, ptr %4, align 8
  %48 = getelementptr inbounds %struct.Vec_Int_t_, ptr %47, i32 0, i32 2
  %49 = load ptr, ptr %48, align 8
  %50 = load i32, ptr %7, align 4
  %51 = sext i32 %50 to i64
  %52 = getelementptr inbounds i32, ptr %49, i64 %51
  store i32 %46, ptr %52, align 4
  br label %53

53:                                               ; preds = %45
  %54 = load i32, ptr %7, align 4
  %55 = add nsw i32 %54, 1
  store i32 %55, ptr %7, align 4
  br label %41, !llvm.loop !20

56:                                               ; preds = %41
  %57 = load i32, ptr %5, align 4
  %58 = load ptr, ptr %4, align 8
  %59 = getelementptr inbounds %struct.Vec_Int_t_, ptr %58, i32 0, i32 1
  store i32 %57, ptr %59, align 4
  br label %60

60:                                               ; preds = %56, %13
  ret void
}

; Function Attrs: nounwind uwtable
define internal i32 @Vec_IntGetEntry(ptr noundef %0, i32 noundef %1) #0 {
  %3 = alloca ptr, align 8
  %4 = alloca i32, align 4
  store ptr %0, ptr %3, align 8
  store i32 %1, ptr %4, align 4
  %5 = load ptr, ptr %3, align 8
  %6 = load i32, ptr %4, align 4
  %7 = add nsw i32 %6, 1
  call void @Vec_IntFillExtra(ptr noundef %5, i32 noundef %7, i32 noundef 0)
  %8 = load ptr, ptr %3, align 8
  %9 = load i32, ptr %4, align 4
  %10 = call i32 @Vec_IntEntry(ptr noundef %8, i32 noundef %9)
  ret i32 %10
}

; Function Attrs: nounwind uwtable
define internal i32 @Ssw_ObjSatNum(ptr noundef %0, ptr noundef %1) #0 {
  %3 = alloca ptr, align 8
  %4 = alloca ptr, align 8
  store ptr %0, ptr %3, align 8
  store ptr %1, ptr %4, align 8
  %5 = load ptr, ptr %3, align 8
  %6 = getelementptr inbounds %struct.Ssw_Sat_t_, ptr %5, i32 0, i32 4
  %7 = load ptr, ptr %6, align 8
  %8 = load ptr, ptr %4, align 8
  %9 = getelementptr inbounds %struct.Aig_Obj_t_, ptr %8, i32 0, i32 5
  %10 = load i32, ptr %9, align 4
  %11 = call i32 @Vec_IntGetEntry(ptr noundef %7, i32 noundef %10)
  ret i32 %11
}