; Function Attrs: nounwind uwtable
define internal fastcc i32 @Ssw_ObjSatNum(ptr captures(none) %.32.val, i32 %.36.val) unnamed_addr #0 {
  %1 = add nsw i32 %.36.val, 1
  %2 = getelementptr inbounds nuw i8, ptr %.32.val, i64 4
  %3 = load i32, ptr %2, align 4
  %.not.i.not.i = icmp slt i32 %.36.val, %3
  br i1 %.not.i.not.i, label %Vec_IntGetEntry.exit, label %4

4:                                                ; preds = %0
  %5 = load i32, ptr %.32.val, align 8
  %6 = shl nsw i32 %5, 1
  %.not.i = icmp slt i32 %.36.val, %6
  %.not.i.i.not.i = icmp sgt i32 %5, %.36.val
  br i1 %.not.i, label %19, label %7

7:                                                ; preds = %4
  br i1 %.not.i.i.not.i, label %Vec_IntGrow.exit.i.i, label %8

8:                                                ; preds = %7
  %9 = getelementptr inbounds nuw i8, ptr %.32.val, i64 8
  %10 = load ptr, ptr %9, align 8
  %.not9.i.i.i = icmp eq ptr %10, null
  %11 = sext i32 %1 to i64
  %12 = shl nsw i64 %11, 2
  br i1 %.not9.i.i.i, label %15, label %13

13:                                               ; preds = %8
  %14 = tail call ptr @realloc(ptr noundef nonnull %10, i64 noundef %12) #12
  br label %17

15:                                               ; preds = %8
  %16 = tail call noalias ptr @malloc(i64 noundef %12) #13
  br label %17

17:                                               ; preds = %15, %13
  %18 = phi ptr [ %14, %13 ], [ %16, %15 ]
  store ptr %18, ptr %9, align 8
  br label %Vec_IntGrow.exit.sink.split.i.i

19:                                               ; preds = %4
  br i1 %.not.i.i.not.i, label %Vec_IntGrow.exit.i.i, label %20

20:                                               ; preds = %19
  %21 = getelementptr inbounds nuw i8, ptr %.32.val, i64 8
  %22 = load ptr, ptr %21, align 8
  %.not9.i21.i.i = icmp eq ptr %22, null
  %23 = sext i32 %6 to i64
  %24 = shl nsw i64 %23, 2
  br i1 %.not9.i21.i.i, label %27, label %25

25:                                               ; preds = %20
  %26 = tail call ptr @realloc(ptr noundef nonnull %22, i64 noundef %24) #12
  br label %29

27:                                               ; preds = %20
  %28 = tail call noalias ptr @malloc(i64 noundef %24) #13
  br label %29

29:                                               ; preds = %27, %25
  %30 = phi ptr [ %26, %25 ], [ %28, %27 ]
  store ptr %30, ptr %21, align 8
  br label %Vec_IntGrow.exit.sink.split.i.i

Vec_IntGrow.exit.sink.split.i.i:                  ; preds = %29, %17
  %.sink.i.i = phi i32 [ %6, %29 ], [ %1, %17 ]
  store i32 %.sink.i.i, ptr %.32.val, align 8
  %.pre.i = load i32, ptr %2, align 4
  br label %Vec_IntGrow.exit.i.i

Vec_IntGrow.exit.i.i:                             ; preds = %Vec_IntGrow.exit.sink.split.i.i, %19, %7
  %31 = phi i32 [ %.pre.i, %Vec_IntGrow.exit.sink.split.i.i ], [ %3, %19 ], [ %3, %7 ]
  %.not3.i = icmp sgt i32 %31, %.36.val
  br i1 %.not3.i, label %._crit_edge.i.i, label %.lr.ph.i.i

.lr.ph.i.i:                                       ; preds = %Vec_IntGrow.exit.i.i
  %32 = getelementptr inbounds nuw i8, ptr %.32.val, i64 8
  %33 = sext i32 %31 to i64
  %wide.trip.count.i.i = sext i32 %1 to i64
  br label %34

34:                                               ; preds = %34, %.lr.ph.i.i
  %indvars.iv.i.i = phi i64 [ %33, %.lr.ph.i.i ], [ %indvars.iv.next.i.i, %34 ]
  %35 = load ptr, ptr %32, align 8
  %36 = getelementptr inbounds i32, ptr %35, i64 %indvars.iv.i.i
  store i32 0, ptr %36, align 4
  %indvars.iv.next.i.i = add nsw i64 %indvars.iv.i.i, 1
  %exitcond.not.i.i = icmp eq i64 %indvars.iv.next.i.i, %wide.trip.count.i.i
  br i1 %exitcond.not.i.i, label %._crit_edge.i.i, label %34, !llvm.loop !4

._crit_edge.i.i:                                  ; preds = %34, %Vec_IntGrow.exit.i.i
  store i32 %1, ptr %2, align 4
  br label %Vec_IntGetEntry.exit

Vec_IntGetEntry.exit:                             ; preds = %0, %._crit_edge.i.i
  %37 = getelementptr i8, ptr %.32.val, i64 8
  %.val.i = load ptr, ptr %37, align 8
  %38 = sext i32 %.36.val to i64
  %39 = getelementptr inbounds i32, ptr %.val.i, i64 %38
  %40 = load i32, ptr %39, align 4
  ret i32 %40
}